; Function Attrs: nounwind uwtable
define internal range(i32 -1, 2) i32 @H5FS__cache_sinfo_verify_chksum(ptr noundef %0, i64 noundef %1, ptr nocapture readnone %2) #0 {
  %4 = alloca i32, align 4
  %5 = alloca i32, align 4
  %6 = call i32 @H5F_get_checksums(ptr noundef %0, i64 noundef %1, ptr noundef nonnull %4, ptr noundef nonnull %5) #7
  %7 = icmp slt i32 %6, 0
  br i1 %7, label %8, label %12

8:                                                ; preds = %3
  %9 = load i64, ptr @H5E_FSPACE_g, align 8
  %10 = load i64, ptr @H5E_CANTGET_g, align 8
  %11 = call i32 (ptr, ptr, i32, i64, i64, ptr, ...) @H5E_printf_stack(ptr noundef nonnull @.str.2, ptr noundef nonnull @__func__.H5FS__cache_sinfo_verify_chksum, i32 noundef 899, i64 noundef %9, i64 noundef %10, ptr noundef nonnull @.str.3) #7
  br label %15

12:                                               ; preds = %3
  %13 = load i32, ptr %4, align 4
  %14 = load i32, ptr %5, align 4
  %.not = icmp eq i32 %13, %14
  %spec.select = zext i1 %.not to i32
  br label %15

15:                                               ; preds = %12, %8
  %.0 = phi i32 [ -1, %8 ], [ %spec.select, %12 ]
  ret i32 %.0
}